target datalayout = "e-m:e-p270:32:32-p271:32:32-p272:64:64-i64:64-i128:128-f80:128-n8:16:32:64-S128"
target triple = "x86_64-pc-linux-gnu"

%struct.mbedtls_lms_public_t = type { %struct.mbedtls_lms_parameters_t, [32 x i8], i8 }
%struct.mbedtls_lms_parameters_t = type { [16 x i8], i32, i32 }

; Function Attrs: alwaysinline nounwind uwtable
define internal void @mbedtls_put_unaligned_uint32(ptr noundef %0, i32 noundef %1) #4 {
  %3 = alloca ptr, align 8
  %4 = alloca i32, align 4
  store ptr %0, ptr %3, align 8, !tbaa !3
  store i32 %1, ptr %4, align 4, !tbaa !11
  %5 = load ptr, ptr %3, align 8, !tbaa !3
  call void @llvm.memcpy.p0.p0.i64(ptr align 1 %5, ptr align 4 %4, i64 4, i1 false)
  ret void
}

; Function Attrs: nounwind uwtable
define hidden i32 @mbedtls_lms_export_public_key(ptr noundef %0, ptr noundef %1, i64 noundef %2, ptr noundef %3) #0 {
  %5 = alloca i32, align 4
  %6 = alloca ptr, align 8
  %7 = alloca ptr, align 8
  %8 = alloca i64, align 8
  %9 = alloca ptr, align 8
  store ptr %0, ptr %6, align 8, !tbaa !3
  store ptr %1, ptr %7, align 8, !tbaa !7
  store i64 %2, ptr %8, align 8, !tbaa !9
  store ptr %3, ptr %9, align 8, !tbaa !18
  %10 = load i64, ptr %8, align 8, !tbaa !9
  %11 = load ptr, ptr %6, align 8, !tbaa !3
  %12 = getelementptr inbounds nuw %struct.mbedtls_lms_public_t, ptr %11, i32 0, i32 0
  %13 = getelementptr inbounds nuw %struct.mbedtls_lms_parameters_t, ptr %12, i32 0, i32 2
  %14 = load i32, ptr %13, align 4, !tbaa !13
  %15 = icmp eq i32 %14, 6
  %16 = select i1 %15, i32 32, i32 0
  %17 = add i32 24, %16
  %18 = zext i32 %17 to i64
  %19 = icmp ult i64 %10, %18
  br i1 %19, label %20, label %21

20:                                               ; preds = %4
  store i32 -25, ptr %5, align 4
  br label %73

21:                                               ; preds = %4
  %22 = load ptr, ptr %6, align 8, !tbaa !3
  %23 = getelementptr inbounds nuw %struct.mbedtls_lms_public_t, ptr %22, i32 0, i32 2
  %24 = load i8, ptr %23, align 4, !tbaa !17
  %25 = icmp ne i8 %24, 0
  br i1 %25, label %27, label %26

26:                                               ; preds = %21
  store i32 -17, ptr %5, align 4
  br label %73

27:                                               ; preds = %21
  %28 = load ptr, ptr %7, align 8, !tbaa !7
  %29 = getelementptr inbounds i8, ptr %28, i64 0
  %30 = load ptr, ptr %6, align 8, !tbaa !3
  %31 = getelementptr inbounds nuw %struct.mbedtls_lms_public_t, ptr %30, i32 0, i32 0
  %32 = getelementptr inbounds nuw %struct.mbedtls_lms_parameters_t, ptr %31, i32 0, i32 2
  %33 = load i32, ptr %32, align 4, !tbaa !13
  %34 = call i32 @llvm.bswap.i32(i32 %33)
  call void @mbedtls_put_unaligned_uint32(ptr noundef %29, i32 noundef %34)
  %35 = load ptr, ptr %7, align 8, !tbaa !7
  %36 = getelementptr inbounds i8, ptr %35, i64 4
  %37 = load ptr, ptr %6, align 8, !tbaa !3
  %38 = getelementptr inbounds nuw %struct.mbedtls_lms_public_t, ptr %37, i32 0, i32 0
  %39 = getelementptr inbounds nuw %struct.mbedtls_lms_parameters_t, ptr %38, i32 0, i32 1
  %40 = load i32, ptr %39, align 4, !tbaa !16
  %41 = call i32 @llvm.bswap.i32(i32 %40)
  call void @mbedtls_put_unaligned_uint32(ptr noundef %36, i32 noundef %41)
  %42 = load ptr, ptr %7, align 8, !tbaa !7
  %43 = getelementptr inbounds nuw i8, ptr %42, i64 8
  %44 = load ptr, ptr %6, align 8, !tbaa !3
  %45 = getelementptr inbounds nuw %struct.mbedtls_lms_public_t, ptr %44, i32 0, i32 0
  %46 = getelementptr inbounds nuw %struct.mbedtls_lms_parameters_t, ptr %45, i32 0, i32 0
  %47 = getelementptr inbounds [16 x i8], ptr %46, i64 0, i64 0
  call void @llvm.memcpy.p0.p0.i64(ptr align 1 %43, ptr align 4 %47, i64 16, i1 false)
  %48 = load ptr, ptr %7, align 8, !tbaa !7
  %49 = getelementptr inbounds nuw i8, ptr %48, i64 24
  %50 = load ptr, ptr %6, align 8, !tbaa !3
  %51 = getelementptr inbounds nuw %struct.mbedtls_lms_public_t, ptr %50, i32 0, i32 1
  %52 = getelementptr inbounds [32 x i8], ptr %51, i64 0, i64 0
  %53 = load ptr, ptr %6, align 8, !tbaa !3
  %54 = getelementptr inbounds nuw %struct.mbedtls_lms_public_t, ptr %53, i32 0, i32 0
  %55 = getelementptr inbounds nuw %struct.mbedtls_lms_parameters_t, ptr %54, i32 0, i32 2
  %56 = load i32, ptr %55, align 4, !tbaa !13
  %57 = icmp eq i32 %56, 6
  %58 = select i1 %57, i32 32, i32 0
  %59 = sext i32 %58 to i64
  call void @llvm.memcpy.p0.p0.i64(ptr align 1 %49, ptr align 4 %52, i64 %59, i1 false)
  %60 = load ptr, ptr %9, align 8, !tbaa !18
  %61 = icmp ne ptr %60, null
  br i1 %61, label %62, label %72

62:                                               ; preds = %27
  %63 = load ptr, ptr %6, align 8, !tbaa !3
  %64 = getelementptr inbounds nuw %struct.mbedtls_lms_public_t, ptr %63, i32 0, i32 0
  %65 = getelementptr inbounds nuw %struct.mbedtls_lms_parameters_t, ptr %64, i32 0, i32 2
  %66 = load i32, ptr %65, align 4, !tbaa !13
  %67 = icmp eq i32 %66, 6
  %68 = select i1 %67, i32 32, i32 0
  %69 = add i32 24, %68
  %70 = zext i32 %69 to i64
  %71 = load ptr, ptr %9, align 8, !tbaa !18
  store i64 %70, ptr %71, align 8, !tbaa !9
  br label %72

72:                                               ; preds = %62, %27
  store i32 0, ptr %5, align 4
  br label %73

73:                                               ; preds = %72, %26, %20
  %74 = load i32, ptr %5, align 4
  ret i32 %74
}