; Function Attrs: mustprogress nofree norecurse nosync nounwind willreturn memory(argmem: readwrite) uwtable
define hidden range(i32 -25, 1) i32 @mbedtls_lms_export_public_key(ptr noundef readonly captures(none) %0, ptr noundef writeonly captures(none) %1, i64 noundef %2, ptr noundef writeonly %3) local_unnamed_addr #4 {
  %5 = getelementptr inbounds nuw i8, ptr %0, i64 20
  %6 = load i32, ptr %5, align 4, !tbaa !3
  %7 = icmp eq i32 %6, 6
  %8 = select i1 %7, i64 56, i64 24
  %9 = icmp ult i64 %2, %8
  br i1 %9, label %29, label %10

10:                                               ; preds = %4
  %11 = getelementptr inbounds nuw i8, ptr %0, i64 56
  %12 = load i8, ptr %11, align 4, !tbaa !10
  %.not = icmp eq i8 %12, 0
  br i1 %.not, label %29, label %13

13:                                               ; preds = %10
  %14 = tail call i32 @llvm.bswap.i32(i32 %6)
  store i32 %14, ptr %1, align 1
  %15 = getelementptr inbounds nuw i8, ptr %1, i64 4
  %16 = getelementptr inbounds nuw i8, ptr %0, i64 16
  %17 = load i32, ptr %16, align 4, !tbaa !9
  %18 = tail call i32 @llvm.bswap.i32(i32 %17)
  store i32 %18, ptr %15, align 1
  %19 = getelementptr inbounds nuw i8, ptr %1, i64 8
  tail call void @llvm.memcpy.p0.p0.i64(ptr noundef nonnull align 1 dereferenceable(16) %19, ptr noundef nonnull align 4 dereferenceable(16) %0, i64 16, i1 false)
  %20 = getelementptr inbounds nuw i8, ptr %1, i64 24
  %21 = getelementptr inbounds nuw i8, ptr %0, i64 24
  %22 = load i32, ptr %5, align 4, !tbaa !3
  %23 = icmp eq i32 %22, 6
  %24 = select i1 %23, i64 32, i64 0
  tail call void @llvm.memcpy.p0.p0.i64(ptr nonnull align 1 %20, ptr nonnull align 4 %21, i64 %24, i1 false)
  %.not16 = icmp eq ptr %3, null
  br i1 %.not16, label %29, label %25

25:                                               ; preds = %13
  %26 = load i32, ptr %5, align 4, !tbaa !3
  %27 = icmp eq i32 %26, 6
  %28 = select i1 %27, i64 56, i64 24
  store i64 %28, ptr %3, align 8, !tbaa !11
  br label %29

29:                                               ; preds = %13, %25, %10, %4
  %.0 = phi i32 [ -25, %4 ], [ -17, %10 ], [ 0, %25 ], [ 0, %13 ]
  ret i32 %.0
}